; Function Attrs: nounwind uwtable
define internal fastcc noundef zeroext i1 @malloc_init_hard_a0() unnamed_addr #2 {
  %1 = tail call i32 @pthread_mutex_trylock(ptr noundef nonnull getelementptr inbounds nuw (i8, ptr @init_lock, i64 72)) #20
  %.not.i = icmp eq i32 %1, 0
  br i1 %.not.i, label %malloc_mutex_trylock_final.exit.i, label %2

malloc_mutex_trylock_final.exit.i:                ; preds = %0
  store atomic i8 1, ptr getelementptr inbounds nuw (i8, ptr @init_lock, i64 64) monotonic, align 8
  br label %3

2:                                                ; preds = %0
  tail call void @je_malloc_mutex_lock_slow(ptr noundef nonnull @init_lock) #20
  br label %3

3:                                                ; preds = %2, %malloc_mutex_trylock_final.exit.i
  %4 = load i64, ptr getelementptr inbounds nuw (i8, ptr @init_lock, i64 56), align 8, !tbaa !43
  %5 = add i64 %4, 1
  store i64 %5, ptr getelementptr inbounds nuw (i8, ptr @init_lock, i64 56), align 8, !tbaa !43
  %6 = load ptr, ptr getelementptr inbounds nuw (i8, ptr @init_lock, i64 48), align 8, !tbaa !48
  %.not.i.i = icmp eq ptr %6, null
  br i1 %.not.i.i, label %malloc_mutex_lock.exit, label %7

7:                                                ; preds = %3
  store ptr null, ptr getelementptr inbounds nuw (i8, ptr @init_lock, i64 48), align 8, !tbaa !48
  %8 = load i64, ptr getelementptr inbounds nuw (i8, ptr @init_lock, i64 40), align 8, !tbaa !49
  %9 = add i64 %8, 1
  store i64 %9, ptr getelementptr inbounds nuw (i8, ptr @init_lock, i64 40), align 8, !tbaa !49
  br label %malloc_mutex_lock.exit

malloc_mutex_lock.exit:                           ; preds = %3, %7
  %10 = tail call fastcc zeroext i1 @malloc_init_hard_a0_locked()
  store atomic i8 0, ptr getelementptr inbounds nuw (i8, ptr @init_lock, i64 64) monotonic, align 8
  %11 = tail call i32 @pthread_mutex_unlock(ptr noundef nonnull getelementptr inbounds nuw (i8, ptr @init_lock, i64 72)) #20
  ret i1 %10
}